target datalayout = "e-m:e-p270:32:32-p271:32:32-p272:64:64-i64:64-i128:128-f80:128-n8:16:32:64-S128"
target triple = "x86_64-pc-linux-gnu"

%struct.ec_group_st = type { ptr, ptr, %struct.bignum_st, %struct.bignum_st, i32, ptr, %struct.bignum_st, %struct.bignum_st, %struct.bignum_st, i32, ptr, %struct.bignum_st }
%struct.bignum_st = type { ptr, i32, i32, i32, i32 }
%struct.ec_point_st = type { ptr, %struct.bignum_st, %struct.bignum_st, %struct.bignum_st }

@.str = private unnamed_addr constant [118 x i8] c"generated/home/dtcxzyw/WorkSpace/Projects/compilers/llvm-opt-benchmark/bench/libquic/libquic/boringssl/crypto/ec/ec.c\00", align 1

; Function Attrs: nounwind uwtable
define hidden i32 @EC_POINT_set_to_infinity(ptr noundef %0, ptr noundef %1) #1 {
  %3 = alloca i32, align 4
  %4 = alloca ptr, align 8
  %5 = alloca ptr, align 8
  store ptr %0, ptr %4, align 8, !tbaa !13
  store ptr %1, ptr %5, align 8, !tbaa !29
  %6 = load ptr, ptr %4, align 8, !tbaa !13
  %7 = getelementptr inbounds nuw %struct.ec_group_st, ptr %6, i32 0, i32 0
  %8 = load ptr, ptr %7, align 8, !tbaa !15
  %9 = load ptr, ptr %5, align 8, !tbaa !29
  %10 = getelementptr inbounds nuw %struct.ec_point_st, ptr %9, i32 0, i32 0
  %11 = load ptr, ptr %10, align 8, !tbaa !31
  %12 = icmp ne ptr %8, %11
  br i1 %12, label %13, label %14

13:                                               ; preds = %2
  call void @ERR_put_error(i32 noundef 15, i32 noundef 0, i32 noundef 106, ptr noundef @.str, i32 noundef 756)
  store i32 0, ptr %3, align 4
  br label %18

14:                                               ; preds = %2
  %15 = load ptr, ptr %4, align 8, !tbaa !13
  %16 = load ptr, ptr %5, align 8, !tbaa !29
  %17 = call i32 @ec_GFp_simple_point_set_to_infinity(ptr noundef %15, ptr noundef %16)
  store i32 %17, ptr %3, align 4
  br label %18

18:                                               ; preds = %14, %13
  %19 = load i32, ptr %3, align 4
  ret i32 %19
}