; Function Attrs: nounwind uwtable
define hidden i32 @EC_POINT_set_to_infinity(ptr noundef %0, ptr noundef %1) local_unnamed_addr #1 {
  %3 = load ptr, ptr %0, align 8, !tbaa !11
  %4 = load ptr, ptr %1, align 8, !tbaa !23
  %.not = icmp eq ptr %3, %4
  br i1 %.not, label %6, label %5

5:                                                ; preds = %2
  tail call void @ERR_put_error(i32 noundef 15, i32 noundef 0, i32 noundef 106, ptr noundef nonnull @.str, i32 noundef 756) #11
  br label %8

6:                                                ; preds = %2
  %7 = tail call i32 @ec_GFp_simple_point_set_to_infinity(ptr noundef nonnull %0, ptr noundef nonnull %1) #11
  br label %8

8:                                                ; preds = %6, %5
  %.0 = phi i32 [ 0, %5 ], [ %7, %6 ]
  ret i32 %.0
}